Certificate:
    Data:
        Version: 3 (0x2)
        Serial Number: 4097 (0x1001)
        Signature Algorithm: sha256WithRSAEncryption
        Issuer: C=US, ST=New York, L=Syracuse, O=Model CA, CN=modelCA.com
        Validity
            Not Before: Nov 10 18:22:35 2020 GMT
            Not After : Nov 10 18:22:35 2021 GMT
        Subject: C=US, ST=New York, O=Model CA, OU=Bank, CN=bank32.com
        Subject Public Key Info:
            Public Key Algorithm: rsaEncryption
                RSA Public-Key: (2048 bit)
                Modulus:
                    00:ba:f5:56:b2:dc:30:69:4f:79:72:a0:1a:5f:91:
                    8f:72:1b:25:f1:81:a7:32:01:b6:c5:c5:27:ac:f5:
                    fa:bf:da:72:e6:b1:4a:17:96:4a:62:34:96:ad:91:
                    6c:c3:6b:b0:1a:af:cb:a2:21:43:4e:31:17:ac:2e:
                    3d:8b:1b:fd:48:51:2b:5e:6a:1f:ba:10:7a:88:c9:
                    64:b6:4f:93:70:d4:3e:44:d2:9f:07:af:81:aa:80:
                    a0:a2:da:48:eb:ac:21:df:73:c7:0c:20:d1:36:c9:
                    93:95:03:20:f4:fb:0f:b6:6e:68:c2:30:30:e3:27:
                    d8:7d:fe:75:15:af:c5:05:f3:2a:f3:f6:3b:b8:31:
                    e3:7a:c7:d4:e7:7b:e2:fc:a5:20:5d:5c:4d:a6:74:
                    f3:4c:20:1d:7d:d0:f1:d0:1d:9c:94:48:4f:dd:58:
                    65:0b:28:22:01:70:74:34:83:e9:5a:4a:a2:95:e9:
                    e0:c5:de:5b:33:c0:22:ce:00:21:90:4a:97:a1:d8:
                    4d:fc:27:13:92:21:ef:84:fb:72:2e:c4:ff:9b:aa:
                    9a:28:55:4e:1d:93:cc:56:43:fa:14:92:0e:a3:48:
                    f8:5e:1e:12:2b:a2:7e:65:4d:93:e8:48:ae:33:56:
                    39:bc:7d:0d:f9:ad:a2:f6:8e:80:43:1e:d0:67:21:
                    23:4f
                Exponent: 65537 (0x10001)
        X509v3 extensions:
            X509v3 Basic Constraints: 
                CA:FALSE
            Netscape Comment: 
                OpenSSL Generated Certificate
            X509v3 Subject Key Identifier: 
                6A:7C:47:D3:F3:0D:BB:57:96:AD:B0:6F:81:70:79:58:67:2D:CB:A8
            X509v3 Authority Key Identifier: 
                keyid:D5:79:46:1C:99:D6:F4:BE:26:3E:15:70:FD:E5:B8:FC:64:90:14:E5

    Signature Algorithm: sha256WithRSAEncryption
         4d:55:b6:14:90:59:57:7b:b6:15:4b:b7:b4:5b:e4:de:53:f7:
         9b:11:0a:4a:ac:91:65:58:7a:cd:60:1d:ed:00:31:b9:2c:e8:
         66:e1:d5:6f:ac:bd:2c:5a:ba:40:cb:22:7f:46:3a:f3:0c:74:
         03:93:5b:70:47:b6:c7:ce:de:60:05:62:8d:5c:8b:b5:54:85:
         39:db:8d:92:02:25:39:8c:3d:c7:e1:ea:02:45:39:dc:03:bd:
         11:a9:32:24:22:d5:43:f0:c1:0f:0c:42:17:29:56:b8:e5:77:
         2e:e2:58:f7:c7:11:16:75:90:17:d5:05:c1:ff:90:82:39:d8:
         c2:93:b1:c1:b8:39:2e:60:81:88:a3:f6:24:b0:40:a2:9a:6e:
         c2:74:56:22:40:12:5c:00:75:b5:ee:73:74:eb:ec:0d:d6:32:
         7b:33:24:51:b3:78:ee:dc:f6:ac:4e:24:a0:62:93:9e:46:ca:
         13:b1:cb:f1:66:f5:c2:ee:3c:cd:bd:0c:27:19:ce:99:52:45:
         a3:0f:7f:54:ec:c0:13:26:8a:f6:06:59:62:54:67:84:ef:cf:
         ff:ce:21:a4:c2:e8:e5:3b:db:ad:5c:df:f3:a2:16:04:8e:ff:
         53:18:44:97:f1:50:fd:49:cb:58:9b:94:33:3a:88:30:48:7d:
         2d:7c:53:76:66:95:4d:0d:13:fd:b5:58:a9:ce:e4:03:e7:4c:
         d9:2f:db:1c:e3:c0:58:12:4c:e8:56:6a:e4:f4:46:dc:19:e8:
         e1:d9:19:50:22:71:e6:ca:6a:63:d7:65:ec:1f:d8:96:99:e2:
         06:d8:2f:e5:9c:6f:b3:2a:ee:1c:23:23:25:92:05:7b:23:d6:
         ce:4d:9f:95:9f:bc:4f:28:9d:4a:af:84:91:ea:f8:c5:1b:34:
         d4:93:29:a4:80:fb:73:29:82:b2:99:20:1f:c5:80:cb:d7:df:
         35:b9:d3:e0:60:29:20:dc:63:6a:47:4c:76:db:a5:d5:2f:45:
         49:75:13:dd:7f:13:02:b0:5c:28:f8:80:e2:c5:e4:f1:c8:9f:
         ee:06:d3:7f:ac:57:fb:c1:6c:03:bd:90:4d:5e:36:c8:bd:a3:
         1a:27:36:ef:9c:29:9a:95:0a:05:c8:6d:b3:51:8d:28:2e:8c:
         af:3f:f8:58:8e:01:1d:ee:81:18:b1:6a:58:d3:b0:ca:1c:9d:
         fe:e0:96:d7:2b:d2:84:4c:c9:13:eb:f3:25:0f:12:55:b1:60:
         e9:43:6f:06:19:6b:bd:94:16:5a:34:98:25:ca:8b:10:00:8d:
         d8:3a:b4:88:c1:c4:25:ad:5a:de:8e:b7:df:fe:73:69:4b:c0:
         b1:3f:52:a6:a9:fe:18:d0
-----BEGIN CERTIFICATE-----
MIIEqjCCApKgAwIBAgICEAEwDQYJKoZIhvcNAQELBQAwXDELMAkGA1UEBhMCVVMx
ETAPBgNVBAgMCE5ldyBZb3JrMREwDwYDVQQHDAhTeXJhY3VzZTERMA8GA1UECgwI
TW9kZWwgQ0ExFDASBgNVBAMMC21vZGVsQ0EuY29tMB4XDTIwMTExMDE4MjIzNVoX
DTIxMTExMDE4MjIzNVowVzELMAkGA1UEBhMCVVMxETAPBgNVBAgMCE5ldyBZb3Jr
MREwDwYDVQQKDAhNb2RlbCBDQTENMAsGA1UECwwEQmFuazETMBEGA1UEAwwKYmFu
azMyLmNvbTCCASIwDQYJKoZIhvcNAQEBBQADggEPADCCAQoCggEBALr1VrLcMGlP
eXKgGl+Rj3IbJfGBpzIBtsXFJ6z1+r/acuaxSheWSmI0lq2RbMNrsBqvy6IhQ04x
F6wuPYsb/UhRK15qH7oQeojJZLZPk3DUPkTSnwevgaqAoKLaSOusId9zxwwg0TbJ
k5UDIPT7D7ZuaMIwMOMn2H3+dRWvxQXzKvP2O7gx43rH1Od74vylIF1cTaZ080wg
HX3Q8dAdnJRIT91YZQsoIgFwdDSD6VpKopXp4MXeWzPAIs4AIZBKl6HYTfwnE5Ih
74T7ci7E/5uqmihVTh2TzFZD+hSSDqNI+F4eEiuifmVNk+hIrjNWObx9DfmtovaO
gEMe0GchI08CAwEAAaN7MHkwCQYDVR0TBAIwADAsBglghkgBhvhCAQ0EHxYdT3Bl
blNTTCBHZW5lcmF0ZWQgQ2VydGlmaWNhdGUwHQYDVR0OBBYEFGp8R9PzDbtXlq2w
b4FweVhnLcuoMB8GA1UdIwQYMBaAFNV5RhyZ1vS+Jj4VcP3luPxkkBTlMA0GCSqG
SIb3DQEBCwUAA4ICAQBNVbYUkFlXe7YVS7e0W+TeU/ebEQpKrJFlWHrNYB3tADG5
LOhm4dVvrL0sWrpAyyJ/RjrzDHQDk1twR7bHzt5gBWKNXIu1VIU5242SAiU5jD3H
4eoCRTncA70RqTIkItVD8MEPDEIXKVa45Xcu4lj3xxEWdZAX1QXB/5CCOdjCk7HB
uDkuYIGIo/YksECimm7CdFYiQBJcAHW17nN06+wN1jJ7MyRRs3ju3PasTiSgYpOe
RsoTscvxZvXC7jzNvQwnGc6ZUkWjD39U7MATJor2BlliVGeE78//ziGkwujlO9ut
XN/zohYEjv9TGESX8VD9SctYm5QzOogwSH0tfFN2ZpVNDRP9tVipzuQD50zZL9sc
48BYEkzoVmrk9EbcGejh2RlQInHmympj12XsH9iWmeIG2C/lnG+zKu4cIyMlkgV7
I9bOTZ+Vn7xPKJ1Kr4SR6vjFGzTUkymkgPtzKYKymSAfxYDL1981udPgYCkg3GNq
R0x226XVL0VJdRPdfxMCsFwo+IDixeTxyJ/uBtN/rFf7wWwDvZBNXjbIvaMaJzbv
nCmalQoFyG2zUY0oLoyvP/hYjgEd7oEYsWpY07DKHJ3+4JbXK9KETMkT6/MlDxJV
sWDpQ28GGWu9lBZaNJglyosQAI3YOrSIwcQlrVrejrff/nNpS8CxP1Kmqf4Y0A==
-----END CERTIFICATE-----
